target datalayout = "e-m:e-p270:32:32-p271:32:32-p272:64:64-i64:64-i128:128-f80:128-n8:16:32:64-S128"
target triple = "x86_64-pc-linux-gnu"

%struct._asn1_ctx_t = type { i32, i32, i8, ptr, ptr, ptr, ptr, ptr, %struct.anon.2, %struct.anon.5, %struct.anon.6, ptr }
%struct.anon.2 = type { i32, i8, i8, i8, ptr, ptr, i32, i32, ptr, ptr, ptr, %union.anon }
%union.anon = type { %struct.anon.3 }
%struct.anon.3 = type { ptr }
%struct.anon.5 = type { ptr, ptr, ptr }
%struct.anon.6 = type { i32, i8, ptr, i32, i32, ptr, ptr, ptr, %union.anon.7 }
%union.anon.7 = type { %struct.anon.8 }
%struct.anon.8 = type { ptr }

; Function Attrs: nounwind uwtable
define hidden void @h248_param_ber_octetstring(ptr noundef %0, ptr noundef %1, ptr noundef %2, i32 noundef %3, ptr noundef %4, ptr noundef %5) #0 {
  %7 = alloca ptr, align 8
  %8 = alloca ptr, align 8
  %9 = alloca ptr, align 8
  %10 = alloca i32, align 4
  %11 = alloca ptr, align 8
  %12 = alloca ptr, align 8
  %13 = alloca %struct._asn1_ctx_t, align 8
  store ptr %0, ptr %7, align 8
  store ptr %1, ptr %8, align 8
  store ptr %2, ptr %9, align 8
  store i32 %3, ptr %10, align 4
  store ptr %4, ptr %11, align 8
  store ptr %5, ptr %12, align 8
  %14 = load ptr, ptr %9, align 8
  call void @asn1_ctx_init(ptr noundef %13, i32 noundef 0, i1 noundef zeroext true, ptr noundef %14)
  %15 = load ptr, ptr %12, align 8
  %16 = icmp ne ptr %15, null
  br i1 %16, label %17, label %22

17:                                               ; preds = %6
  %18 = load ptr, ptr %12, align 8
  %19 = load i8, ptr %18, align 1
  %20 = trunc i8 %19 to i1
  %21 = zext i1 %20 to i32
  br label %23

22:                                               ; preds = %6
  br label %23

23:                                               ; preds = %22, %17
  %24 = phi i32 [ %21, %17 ], [ 0, %22 ]
  %25 = icmp ne i32 %24, 0
  %26 = load ptr, ptr %7, align 8
  %27 = load ptr, ptr %8, align 8
  %28 = load i32, ptr %10, align 4
  %29 = call i32 @dissect_ber_octet_string(i1 noundef zeroext %25, ptr noundef %13, ptr noundef %26, ptr noundef %27, i32 noundef 0, i32 noundef %28, ptr noundef null)
  ret void
}