; Function Attrs: nounwind uwtable
define hidden void @h248_param_ber_octetstring(ptr noundef %0, ptr noundef %1, ptr noundef %2, i32 noundef %3, ptr noundef readnone captures(none) %4, ptr noundef readonly %5) local_unnamed_addr #0 {
  %7 = alloca %struct._asn1_ctx_t, align 8
  call void @asn1_ctx_init(ptr noundef nonnull %7, i32 noundef 0, i1 noundef zeroext true, ptr noundef %2) #7
  %.not = icmp eq ptr %5, null
  br i1 %.not, label %12, label %8

8:                                                ; preds = %6
  %9 = load i8, ptr %5, align 1
  %10 = and i8 %9, 1
  %11 = icmp ne i8 %10, 0
  br label %12

12:                                               ; preds = %6, %8
  %13 = phi i1 [ %11, %8 ], [ false, %6 ]
  %14 = call i32 @dissect_ber_octet_string(i1 noundef zeroext %13, ptr noundef nonnull %7, ptr noundef %0, ptr noundef %1, i32 noundef 0, i32 noundef %3, ptr noundef null) #7
  ret void
}